; Function Attrs: mustprogress uwtable
define noundef zeroext i1 @_ZNK10open_spiel9gin_rummy13GinRummyUtils16VectorsIntersectEPSt6vectorIiSaIiEES5_(ptr nocapture noundef nonnull readnone align 8 dereferenceable(120) %0, ptr nocapture noundef readonly %1, ptr nocapture noundef readonly %2) local_unnamed_addr #3 align 2 {
  %4 = load ptr, ptr %1, align 8
  %5 = getelementptr inbounds nuw i8, ptr %1, i64 8
  %6 = load ptr, ptr %5, align 8
  tail call void @_ZSt6__sortIN9__gnu_cxx17__normal_iteratorIPiSt6vectorIiSaIiEEEENS0_5__ops15_Iter_less_iterEEvT_S9_T0_(ptr %4, ptr %6)
  %7 = load ptr, ptr %2, align 8
  %8 = getelementptr inbounds nuw i8, ptr %2, i64 8
  %9 = load ptr, ptr %8, align 8
  tail call void @_ZSt6__sortIN9__gnu_cxx17__normal_iteratorIPiSt6vectorIiSaIiEEEENS0_5__ops15_Iter_less_iterEEvT_S9_T0_(ptr %7, ptr %9)
  %10 = load ptr, ptr %1, align 8
  %11 = load ptr, ptr %5, align 8
  %12 = load ptr, ptr %2, align 8
  %13 = load ptr, ptr %8, align 8
  %14 = icmp ne ptr %10, %11
  %15 = icmp ne ptr %12, %13
  %or.cond16 = select i1 %14, i1 %15, i1 false
  br i1 %or.cond16, label %.lr.ph, label %.critedge

.lr.ph:                                           ; preds = %3, %25
  %.sroa.012.018 = phi ptr [ %.sroa.012.1, %25 ], [ %10, %3 ]
  %.sroa.07.017 = phi ptr [ %.sroa.07.1, %25 ], [ %12, %3 ]
  %16 = load i32, ptr %.sroa.012.018, align 4
  %17 = load i32, ptr %.sroa.07.017, align 4
  %18 = icmp slt i32 %16, %17
  br i1 %18, label %19, label %21

19:                                               ; preds = %.lr.ph
  %20 = getelementptr inbounds i8, ptr %.sroa.012.018, i64 4
  br label %25

21:                                               ; preds = %.lr.ph
  %22 = icmp slt i32 %17, %16
  br i1 %22, label %23, label %.critedge

23:                                               ; preds = %21
  %24 = getelementptr inbounds i8, ptr %.sroa.07.017, i64 4
  br label %25

25:                                               ; preds = %23, %19
  %.sroa.07.1 = phi ptr [ %.sroa.07.017, %19 ], [ %24, %23 ]
  %.sroa.012.1 = phi ptr [ %20, %19 ], [ %.sroa.012.018, %23 ]
  %26 = icmp ne ptr %.sroa.012.1, %11
  %27 = icmp ne ptr %.sroa.07.1, %13
  %or.cond = select i1 %26, i1 %27, i1 false
  br i1 %or.cond, label %.lr.ph, label %.critedge, !llvm.loop !28

.critedge:                                        ; preds = %21, %25, %3
  %or.cond.lcssa = phi i1 [ false, %3 ], [ false, %25 ], [ true, %21 ]
  ret i1 %or.cond.lcssa
}